target datalayout = "e-m:e-p270:32:32-p271:32:32-p272:64:64-i64:64-i128:128-f80:128-n8:16:32:64-S128"
target triple = "x86_64-pc-linux-gnu"

%struct.ec_name2nid_st = type { ptr, i32 }

; Function Attrs: nounwind uwtable
define ptr @OSSL_EC_curve_nid2name(i32 noundef %0) #0 {
  %2 = alloca ptr, align 8
  %3 = alloca i32, align 4
  %4 = alloca i64, align 8
  %5 = alloca i32, align 4
  store i32 %0, ptr %3, align 4, !tbaa !3
  call void @llvm.lifetime.start.p0(i64 8, ptr %4) #4
  %6 = load i32, ptr %3, align 4, !tbaa !3
  %7 = icmp sle i32 %6, 0
  br i1 %7, label %8, label %9

8:                                                ; preds = %1
  store ptr null, ptr %2, align 8
  store i32 1, ptr %5, align 4
  br label %30

9:                                                ; preds = %1
  store i64 0, ptr %4, align 8, !tbaa !7
  br label %10

10:                                               ; preds = %26, %9
  %11 = load i64, ptr %4, align 8, !tbaa !7
  %12 = icmp ult i64 %11, 82
  br i1 %12, label %13, label %29

13:                                               ; preds = %10
  %14 = load i64, ptr %4, align 8, !tbaa !7
  %15 = getelementptr inbounds nuw [82 x %struct.ec_name2nid_st], ptr @curve_list, i64 0, i64 %14
  %16 = getelementptr inbounds nuw %struct.ec_name2nid_st, ptr %15, i32 0, i32 1
  %17 = load i32, ptr %16, align 8, !tbaa !9
  %18 = load i32, ptr %3, align 4, !tbaa !3
  %19 = icmp eq i32 %17, %18
  br i1 %19, label %20, label %25

20:                                               ; preds = %13
  %21 = load i64, ptr %4, align 8, !tbaa !7
  %22 = getelementptr inbounds nuw [82 x %struct.ec_name2nid_st], ptr @curve_list, i64 0, i64 %21
  %23 = getelementptr inbounds nuw %struct.ec_name2nid_st, ptr %22, i32 0, i32 0
  %24 = load ptr, ptr %23, align 16, !tbaa !13
  store ptr %24, ptr %2, align 8
  store i32 1, ptr %5, align 4
  br label %30

25:                                               ; preds = %13
  br label %26

26:                                               ; preds = %25
  %27 = load i64, ptr %4, align 8, !tbaa !7
  %28 = add i64 %27, 1
  store i64 %28, ptr %4, align 8, !tbaa !7
  br label %10, !llvm.loop !14

29:                                               ; preds = %10
  store ptr null, ptr %2, align 8
  store i32 1, ptr %5, align 4
  br label %30

30:                                               ; preds = %29, %20, %8
  call void @llvm.lifetime.end.p0(i64 8, ptr %4) #4
  %31 = load ptr, ptr %2, align 8
  ret ptr %31
}