; Function Attrs: nofree norecurse nosync nounwind memory(none) uwtable
define ptr @OSSL_EC_curve_nid2name(i32 noundef %0) local_unnamed_addr #0 {
  %2 = icmp slt i32 %0, 1
  br i1 %2, label %.loopexit, label %.preheader

3:                                                ; preds = %.preheader
  %4 = add nuw nsw i64 %.08, 1
  %exitcond.not = icmp eq i64 %4, 82
  br i1 %exitcond.not, label %.loopexit, label %.preheader, !llvm.loop !3

.preheader:                                       ; preds = %1, %3
  %.08 = phi i64 [ %4, %3 ], [ 0, %1 ]
  %5 = getelementptr inbounds nuw [82 x %struct.ec_name2nid_st], ptr @curve_list, i64 0, i64 %.08
  %6 = getelementptr inbounds nuw i8, ptr %5, i64 8
  %7 = load i32, ptr %6, align 8, !tbaa !5
  %8 = icmp eq i32 %7, %0
  br i1 %8, label %9, label %3

9:                                                ; preds = %.preheader
  %10 = load ptr, ptr %5, align 16, !tbaa !12
  br label %.loopexit

.loopexit:                                        ; preds = %3, %1, %9
  %.06 = phi ptr [ %10, %9 ], [ null, %1 ], [ null, %3 ]
  ret ptr %.06
}